Certificate:
    Data:
        Version: 3 (0x2)
        Serial Number: 2 (0x2)
    Signature Algorithm: sha256WithRSAEncryption
        Issuer: CN=BS CA
        Validity
            Not Before: Mar 13 18:09:56 2015 GMT
            Not After : Mar 10 18:09:56 2025 GMT
        Subject: CN=client
        Subject Public Key Info:
            Public Key Algorithm: rsaEncryption
                Public-Key: (2048 bit)
                Modulus:
                    00:dd:99:17:d4:16:53:99:01:e2:a3:cf:0c:d4:28:
                    13:aa:cd:6f:ec:45:d3:f5:e9:ba:a4:3c:f2:f2:a8:
                    f2:60:f4:34:06:a9:fb:35:d0:49:63:9a:81:19:e3:
                    36:d5:6d:7e:8f:2a:26:1d:aa:68:07:2f:3a:a2:bb:
                    e5:47:6d:cb:8e:93:60:4b:0a:c5:a3:5c:f1:7f:18:
                    aa:c8:e2:74:99:bf:ed:14:d1:08:9b:0d:fb:c1:ca:
                    07:fb:e6:c4:aa:ae:41:bf:3c:d0:29:fe:98:db:d6:
                    6a:fe:ae:ac:8e:77:6f:66:e1:f4:ca:f1:9f:a6:7e:
                    dd:c8:cb:b0:15:ee:a4:d3:e1:ab:ed:35:ee:4f:61:
                    ed:88:05:7c:96:23:a6:85:b5:f9:3f:f7:d6:a1:69:
                    91:a5:4b:23:85:1a:c0:a8:be:45:5b:9c:4b:2f:70:
                    09:ee:4a:00:43:21:b2:2a:ec:2e:37:19:62:f1:02:
                    ad:47:9a:f1:fa:39:25:46:a6:bd:d9:72:bd:99:94:
                    ca:c2:b2:38:f6:bd:c4:9a:9c:ac:b8:95:b3:0f:00:
                    91:a3:30:8a:45:5b:df:a8:42:8f:d2:2d:b8:6e:92:
                    32:66:d4:9f:15:b9:48:bd:6e:9b:0d:4d:77:46:07:
                    a4:80:55:db:30:91:72:ab:fb:e3:d2:26:47:bc:6a:
                    15:f7
                Exponent: 65537 (0x10001)
        X509v3 extensions:
            X509v3 Basic Constraints:
                CA:FALSE
            X509v3 Subject Key Identifier:
                2E:A9:94:2F:ED:A5:A3:B2:4F:F4:C7:D7:8E:3A:14:FD:DF:25:FF:CA
            X509v3 Authority Key Identifier:
                keyid:2B:7D:B6:05:6C:C5:0B:D0:58:D4:BC:A0:DC:EB:BB:E1:95:F1:9F:D2
                DirName:/CN=BS CA
                serial:A4:49:D8:FE:B3:B6:52:6D

            X509v3 Extended Key Usage:
                TLS Web Client Authentication
            X509v3 Key Usage:
                Digital Signature
    Signature Algorithm: sha256WithRSAEncryption
         01:9a:94:99:0c:62:79:9e:4c:5b:a8:bc:3c:46:43:89:44:79:
         81:cb:a5:41:a9:3d:d9:09:e3:e9:7f:c9:22:a8:f6:75:dd:0e:
         32:b6:d7:fb:c8:c8:9d:43:7c:5e:fb:9a:c1:dd:f0:24:d6:1a:
         73:39:82:42:26:43:0b:d5:98:31:cc:8a:2f:9f:fe:dc:b9:32:
         04:c1:c7:35:93:e3:d1:00:7c:3c:22:61:9f:45:21:c7:d5:90:
         8a:80:2a:df:8e:fa:72:ef:40:71:83:39:5d:c2:07:5b:c0:74:
         47:60:46:09:57:b0:3b:30:27:31:f1:de:bf:88:05:43:74:a7:
         50:d5:15:67:f3:25:63:e2:66:02:ad:ef:71:ed:38:74:27:0e:
         bb:0d:7e:14:0a:de:01:7f:3a:1e:17:cd:1a:bb:c3:c3:dd:99:
         a2:75:cd:aa:47:f3:84:d8:84:68:2a:81:58:9a:9d:f7:26:2c:
         88:eb:0b:d3:a2:1c:3c:2b:af:b5:08:4c:34:73:d6:9e:c6:b0:
         c7:2f:62:42:dc:6c:9c:f7:35:dd:9b:d7:2b:e9:22:12:ad:8b:
         ca:1a:a7:c8:0b:61:fd:1d:ef:41:e2:f9:dd:d0:38:65:26:b1:
         a0:c6:e4:a2:cd:0b:a5:f0:a1:b6:5f:c8:01:82:4b:63:eb:9a:
         45:0e:aa:cb
-----BEGIN CERTIFICATE-----
MIIDLjCCAhagAwIBAgIBAjANBgkqhkiG9w0BAQsFADAQMQ4wDAYDVQQDDAVCUyBD
QTAeFw0xNTAzMTMxODA5NTZaFw0yNTAzMTAxODA5NTZaMBExDzANBgNVBAMMBmNs
aWVudDCCASIwDQYJKoZIhvcNAQEBBQADggEPADCCAQoCggEBAN2ZF9QWU5kB4qPP
DNQoE6rNb+xF0/XpuqQ88vKo8mD0NAap+zXQSWOagRnjNtVtfo8qJh2qaAcvOqK7
5Udty46TYEsKxaNc8X8YqsjidJm/7RTRCJsN+8HKB/vmxKquQb880Cn+mNvWav6u
rI53b2bh9Mrxn6Z+3cjLsBXupNPhq+017k9h7YgFfJYjpoW1+T/31qFpkaVLI4Ua
wKi+RVucSy9wCe5KAEMhsirsLjcZYvECrUea8fo5JUamvdlyvZmUysKyOPa9xJqc
rLiVsw8AkaMwikVb36hCj9ItuG6SMmbUnxW5SL1umw1Nd0YHpIBV2zCRcqv749Im
R7xqFfcCAwEAAaOBkTCBjjAJBgNVHRMEAjAAMB0GA1UdDgQWBBQuqZQv7aWjsk/0
x9eOOhT93yX/yjBABgNVHSMEOTA3gBQrfbYFbMUL0FjUvKDc67vhlfGf0qEUpBIw
EDEOMAwGA1UEAwwFQlMgQ0GCCQCkSdj+s7ZSbTATBgNVHSUEDDAKBggrBgEFBQcD
AjALBgNVHQ8EBAMCB4AwDQYJKoZIhvcNAQELBQADggEBAAGalJkMYnmeTFuovDxG
Q4lEeYHLpUGpPdkJ4+l/ySKo9nXdDjK21/vIyJ1DfF77msHd8CTWGnM5gkImQwvV
mDHMii+f/ty5MgTBxzWT49EAfDwiYZ9FIcfVkIqAKt+O+nLvQHGDOV3CB1vAdEdg
RglXsDswJzHx3r+IBUN0p1DVFWfzJWPiZgKt73HtOHQnDrsNfhQK3gF/Oh4XzRq7
w8PdmaJ1zapH84TYhGgqgVianfcmLIjrC9OiHDwrr7UITDRz1p7GsMcvYkLcbJz3
Nd2b1yvpIhKti8oap8gLYf0d70Hi+d3QOGUmsaDG5KLNC6XwobZfyAGCS2PrmkUO
qss=
-----END CERTIFICATE-----