Certificate:
    Data:
        Version: 3 (0x2)
        Serial Number: 1 (0x1)
    Signature Algorithm: sha256WithRSAEncryption
        Issuer: CN=BS CA
        Validity
            Not Before: Mar 13 18:08:31 2015 GMT
            Not After : Mar 10 18:08:31 2025 GMT
        Subject: CN=localhost
        Subject Public Key Info:
            Public Key Algorithm: rsaEncryption
                Public-Key: (2048 bit)
                Modulus:
                    00:a4:76:cf:fc:2a:ae:8b:9c:a4:6c:ef:40:d9:35:
                    8f:79:99:06:64:3b:20:bf:11:ec:1c:80:31:83:de:
                    38:31:c9:75:65:d4:7f:5c:d0:b9:1a:4b:b8:50:2f:
                    86:3b:e5:18:2b:fe:a2:14:c4:ca:03:fd:67:d5:d2:
                    bc:ee:3e:0b:11:75:bc:be:2e:72:21:db:ca:ab:c4:
                    8f:f7:62:6e:0d:1e:2d:4a:bf:28:6e:d4:b7:cc:f2:
                    f1:83:05:6c:20:ce:5e:c4:8a:dc:c6:09:4b:44:46:
                    fa:95:2d:eb:a8:74:5c:64:b4:4e:e8:d1:9a:5b:14:
                    56:5a:b8:f2:17:ff:f5:5d:e4:91:55:a1:87:01:cc:
                    d7:7c:0d:b3:d4:e3:a9:00:ec:6d:3c:eb:97:55:8a:
                    01:3c:1e:ad:a0:75:74:5d:9e:ec:31:82:68:d3:32:
                    12:c3:5a:7f:5c:19:9d:d5:cf:4c:ec:ae:77:bc:32:
                    5f:dd:e8:9a:68:a7:c7:1b:d9:de:4c:b8:ad:da:d9:
                    92:7e:08:ee:f3:1f:8c:85:f2:eb:a9:6f:71:e3:0d:
                    5f:c1:68:7d:de:9a:7f:c0:cc:ea:37:6c:04:71:2c:
                    29:41:8a:df:19:54:ce:5d:3c:a1:5c:ad:49:2b:30:
                    a0:4c:ca:e7:de:90:72:fa:ed:b8:59:72:1f:d0:15:
                    3a:2d
                Exponent: 65537 (0x10001)
        X509v3 extensions:
            X509v3 Basic Constraints:
                CA:FALSE
            X509v3 Subject Key Identifier:
                C6:9D:30:51:C4:FB:E2:A1:62:16:AF:A0:77:54:31:13:1C:1F:1D:85
            X509v3 Authority Key Identifier:
                keyid:2B:7D:B6:05:6C:C5:0B:D0:58:D4:BC:A0:DC:EB:BB:E1:95:F1:9F:D2
                DirName:/CN=BS CA
                serial:A4:49:D8:FE:B3:B6:52:6D

            X509v3 Extended Key Usage:
                TLS Web Server Authentication
            X509v3 Key Usage:
                Digital Signature, Key Encipherment
    Signature Algorithm: sha256WithRSAEncryption
         84:75:61:2c:bc:57:d2:58:ec:76:4f:9f:31:29:01:9e:21:d8:
         ab:88:ae:27:6a:a0:bd:93:50:ed:e6:6a:89:f3:22:c7:6b:c4:
         d6:ac:2b:67:54:9a:d6:fd:61:98:24:d2:43:56:62:6d:4c:d4:
         2b:eb:75:5c:b2:da:ec:da:cc:f5:08:5a:81:ca:8e:e8:75:1a:
         71:17:d4:4d:ef:2b:7f:f0:3e:35:fc:67:02:d9:a9:32:12:50:
         72:ee:69:7b:71:85:d0:d7:32:03:d9:aa:96:32:10:1d:41:ff:
         97:dc:12:5c:cb:c0:07:d5:31:10:ef:a7:ae:aa:3e:44:0a:b6:
         f1:2b:5d:d6:97:6f:33:d0:66:ab:14:c9:8d:80:ce:eb:d8:aa:
         5c:02:96:13:74:ac:97:a1:24:ba:ed:b8:ce:60:5d:42:2c:2e:
         da:7f:3f:c1:73:99:7b:81:20:de:c4:38:c7:2d:de:6e:1c:e5:
         cb:ef:a5:29:33:5e:ed:92:dd:56:3a:91:61:a9:41:f5:95:83:
         7c:84:7d:08:9f:f3:d5:43:ea:a3:7f:9e:f5:9e:7d:eb:c9:77:
         bd:43:bc:bf:b0:08:4f:b4:a2:c7:ea:2c:d5:8a:d5:9f:b6:00:
         cd:55:8a:1e:11:49:76:01:a5:d2:8a:dd:58:a0:94:32:b3:01:
         db:47:f2:5c
-----BEGIN CERTIFICATE-----
MIIDMTCCAhmgAwIBAgIBATANBgkqhkiG9w0BAQsFADAQMQ4wDAYDVQQDDAVCUyBD
QTAeFw0xNTAzMTMxODA4MzFaFw0yNTAzMTAxODA4MzFaMBQxEjAQBgNVBAMMCWxv
Y2FsaG9zdDCCASIwDQYJKoZIhvcNAQEBBQADggEPADCCAQoCggEBAKR2z/wqrouc
pGzvQNk1j3mZBmQ7IL8R7ByAMYPeODHJdWXUf1zQuRpLuFAvhjvlGCv+ohTEygP9
Z9XSvO4+CxF1vL4uciHbyqvEj/dibg0eLUq/KG7Ut8zy8YMFbCDOXsSK3MYJS0RG
+pUt66h0XGS0TujRmlsUVlq48hf/9V3kkVWhhwHM13wNs9TjqQDsbTzrl1WKATwe
raB1dF2e7DGCaNMyEsNaf1wZndXPTOyud7wyX93omminxxvZ3ky4rdrZkn4I7vMf
jIXy66lvceMNX8Fofd6af8DM6jdsBHEsKUGK3xlUzl08oVytSSswoEzK596Qcvrt
uFlyH9AVOi0CAwEAAaOBkTCBjjAJBgNVHRMEAjAAMB0GA1UdDgQWBBTGnTBRxPvi
oWIWr6B3VDETHB8dhTBABgNVHSMEOTA3gBQrfbYFbMUL0FjUvKDc67vhlfGf0qEU
pBIwEDEOMAwGA1UEAwwFQlMgQ0GCCQCkSdj+s7ZSbTATBgNVHSUEDDAKBggrBgEF
BQcDATALBgNVHQ8EBAMCBaAwDQYJKoZIhvcNAQELBQADggEBAIR1YSy8V9JY7HZP
nzEpAZ4h2KuIridqoL2TUO3maonzIsdrxNasK2dUmtb9YZgk0kNWYm1M1CvrdVyy
2uzazPUIWoHKjuh1GnEX1E3vK3/wPjX8ZwLZqTISUHLuaXtxhdDXMgPZqpYyEB1B
/5fcElzLwAfVMRDvp66qPkQKtvErXdaXbzPQZqsUyY2AzuvYqlwClhN0rJehJLrt
uM5gXUIsLtp/P8FzmXuBIN7EOMct3m4c5cvvpSkzXu2S3VY6kWGpQfWVg3yEfQif
89VD6qN/nvWefevJd71DvL+wCE+0osfqLNWK1Z+2AM1Vih4RSXYBpdKK3ViglDKz
AdtH8lw=
-----END CERTIFICATE-----